; Function Attrs: mustprogress nounwind uwtable
define hidden i64 @_ZN12LIRGenerator20access_atomic_add_atEm9BasicTypeR7LIRItemS2_S2_(ptr noundef nonnull align 8 dereferenceable(232) %0, i64 noundef %1, i8 noundef zeroext %2, ptr noundef nonnull align 8 dereferenceable(40) %3, ptr noundef nonnull align 8 dereferenceable(40) %4, ptr noundef nonnull align 8 dereferenceable(40) %5) local_unnamed_addr #3 align 2 {
  %7 = alloca %class.LIRAccess, align 8
  %8 = and i64 %1, 1984
  %9 = icmp eq i64 %8, 0
  %10 = select i1 %9, i64 1024, i64 0
  %11 = or i64 %10, %1
  store ptr %0, ptr %7, align 8
  %12 = getelementptr inbounds i8, ptr %7, i64 8
  %13 = and i8 %2, -2
  %or.cond.i.i.i = icmp eq i8 %13, 12
  %spec.select.i.i = select i1 %or.cond.i.i.i, i64 4, i64 0
  %14 = or i64 %11, %spec.select.i.i
  %15 = and i64 %1, 245760
  %16 = icmp eq i64 %15, 0
  %17 = and i64 %14, 4
  %18 = icmp ne i64 %17, 0
  %19 = and i1 %16, %18
  %20 = select i1 %19, i64 16384, i64 0
  %21 = and i64 %11, 1984
  %22 = icmp eq i64 %21, 0
  %23 = select i1 %22, i64 64, i64 0
  %24 = and i64 %1, 14336
  %25 = icmp eq i64 %24, 0
  %26 = select i1 %25, i64 8192, i64 0
  %27 = or disjoint i64 %26, %23
  %28 = or disjoint i64 %27, %20
  %29 = or i64 %28, %14
  %30 = or i64 %29, 1610612736
  store i64 %30, ptr %12, align 8
  %31 = getelementptr inbounds i8, ptr %7, i64 16
  store ptr %3, ptr %31, align 8
  %32 = getelementptr inbounds i8, ptr %7, i64 24
  store i64 0, ptr %32, align 8
  %33 = getelementptr inbounds i8, ptr %7, i64 32
  store ptr %4, ptr %33, align 8
  %34 = getelementptr inbounds i8, ptr %7, i64 40
  store i64 0, ptr %34, align 8
  %35 = getelementptr inbounds i8, ptr %7, i64 48
  store i8 %2, ptr %35, align 8
  %36 = getelementptr inbounds i8, ptr %7, i64 56
  %37 = and i64 %1, 2048
  %.not = icmp eq i64 %37, 0
  call void @llvm.memset.p0.i64(ptr noundef nonnull align 8 dereferenceable(24) %36, i8 0, i64 24, i1 false)
  %38 = getelementptr inbounds i8, ptr %0, i64 224
  %39 = load ptr, ptr %38, align 8
  br i1 %.not, label %42, label %40

40:                                               ; preds = %6
  %41 = call i64 @_ZN12BarrierSetC113atomic_add_atER9LIRAccessR7LIRItem(ptr noundef nonnull align 8 dereferenceable(8) %39, ptr noundef nonnull align 8 dereferenceable(80) %7, ptr noundef nonnull align 8 dereferenceable(40) %5) #17
  br label %47

42:                                               ; preds = %6
  %43 = load ptr, ptr %39, align 8
  %44 = getelementptr inbounds i8, ptr %43, i64 96
  %45 = load ptr, ptr %44, align 8
  %46 = call i64 %45(ptr noundef nonnull align 8 dereferenceable(8) %39, ptr noundef nonnull align 8 dereferenceable(80) %7, ptr noundef nonnull align 8 dereferenceable(40) %5) #17
  br label %47

47:                                               ; preds = %42, %40
  %.sroa.0.0 = phi i64 [ %41, %40 ], [ %46, %42 ]
  ret i64 %.sroa.0.0
}